Certificate:
    Data:
        Version: 3 (0x2)
        Serial Number: 2 (0x2)
    Signature Algorithm: sha256WithRSAEncryption
        Issuer: C=cn, ST=hubei, L=wuhan, O=linkstech, OU=links_wuhan, CN=linkstech CA/name=chenhao/emailAddress=chenhao@linkstech.com.cn
        Validity
            Not Before: Sep 22 02:34:21 2017 GMT
            Not After : Sep 20 02:34:21 2027 GMT
        Subject: C=cn, ST=hubei, L=wuhan, O=linkstech, OU=links_wuhan, CN=chenhao/name=chenhao/emailAddress=chenhao@linkstech.com.cn
        Subject Public Key Info:
            Public Key Algorithm: rsaEncryption
                Public-Key: (2048 bit)
                Modulus:
                    00:e0:4a:f3:55:ad:5d:ab:01:3f:28:b3:f7:e3:03:
                    1b:b6:76:30:f2:d6:ba:7a:03:af:18:b0:bc:ef:e7:
                    fb:8d:e0:34:09:0d:f4:76:31:87:b5:2c:c0:06:e6:
                    6f:07:41:64:13:6f:51:3c:b3:36:9d:f7:31:65:0a:
                    38:c5:d2:ca:77:dc:d6:3f:25:3e:36:93:0d:0b:9a:
                    ec:11:64:a5:e5:fe:35:eb:4a:f7:f2:d0:77:86:87:
                    e7:a4:63:b2:c6:3d:6b:32:78:c3:2b:83:93:dd:26:
                    62:74:65:16:8b:7f:99:2e:9c:57:d3:d0:5c:c6:df:
                    8f:b1:a5:5f:4e:e1:73:66:e3:55:f0:31:0e:a6:59:
                    f1:0e:35:e9:1a:88:6a:e2:77:0f:5e:fd:0f:65:8d:
                    6f:fa:83:d6:9b:ec:a2:f5:1b:14:17:15:14:c7:7f:
                    9c:48:15:eb:84:24:0e:1b:ec:10:ea:24:98:50:97:
                    46:5f:4f:4b:09:55:40:1b:ec:8b:b2:b1:11:4c:61:
                    0f:45:3d:7a:19:f9:0e:d7:a7:db:0b:ba:b9:17:6e:
                    08:3c:04:95:e8:ce:f0:f3:34:ae:52:c6:47:cc:cd:
                    c9:de:ba:15:b9:1f:9f:ec:17:25:5c:e3:53:cd:13:
                    1f:49:ca:2b:60:7b:1f:3c:ff:f1:b9:92:63:fb:dd:
                    28:5f
                Exponent: 65537 (0x10001)
        X509v3 extensions:
            X509v3 Basic Constraints: 
                CA:FALSE
            Netscape Comment: 
                Easy-RSA Generated Certificate
            X509v3 Subject Key Identifier: 
                6D:7B:D3:54:93:55:52:31:D8:D7:4C:8F:8D:47:FF:15:06:63:35:2E
            X509v3 Authority Key Identifier: 
                keyid:6A:0E:FA:D9:53:C9:BF:F5:05:5B:59:0E:1B:DE:CE:93:91:A3:D9:41
                DirName:/C=cn/ST=hubei/L=wuhan/O=linkstech/OU=links_wuhan/CN=linkstech CA/name=chenhao/emailAddress=chenhao@linkstech.com.cn
                serial:B0:8C:0E:27:20:E2:74:D6

            X509v3 Extended Key Usage: 
                TLS Web Client Authentication
            X509v3 Key Usage: 
                Digital Signature
    Signature Algorithm: sha256WithRSAEncryption
         13:65:19:c6:97:03:8e:d2:20:f4:32:aa:7c:60:9a:12:66:79:
         49:b8:96:63:a1:b4:41:14:bd:4f:ec:82:34:fe:dc:2f:b5:61:
         e9:11:dc:06:30:a5:61:3f:0b:18:1f:4d:90:ed:06:71:fb:13:
         61:3a:c0:c9:20:a7:76:c1:6b:fd:ef:d8:e3:fb:c5:ef:00:88:
         21:4e:8e:d9:01:9c:c0:86:2d:27:b0:dd:7c:d9:28:91:df:c0:
         2c:5e:d9:ae:f1:43:c3:57:db:ab:8e:9d:c9:69:79:23:27:5e:
         82:97:5a:e6:92:8d:54:d7:ca:d8:94:ff:df:6a:00:41:1b:9a:
         a9:7b:7c:02:7c:c8:bb:75:35:5e:a8:37:8d:aa:1d:f7:80:4f:
         d4:d6:93:4b:94:77:9c:5e:d8:7d:0e:6e:9d:d6:d9:ca:6d:2b:
         83:f8:c6:7a:ea:b2:5c:ea:c2:3a:a0:9a:92:b6:2d:0b:ac:f0:
         64:42:f4:4e:cc:60:a2:75:1b:d5:be:ac:d3:52:8e:22:01:77:
         60:d3:d2:5e:ec:1c:01:5d:b5:3e:34:48:07:bf:7d:e4:d5:dc:
         b5:9d:f7:9b:78:68:e4:b5:96:e5:9a:5b:0d:97:c0:42:5d:d9:
         ef:7e:e6:f2:14:a2:9a:c3:75:32:a9:1f:5d:44:f8:59:44:a1:
         38:3d:e5:49
-----BEGIN CERTIFICATE-----
MIIFLDCCBBSgAwIBAgIBAjANBgkqhkiG9w0BAQsFADCBqTELMAkGA1UEBhMCY24x
DjAMBgNVBAgTBWh1YmVpMQ4wDAYDVQQHEwV3dWhhbjESMBAGA1UEChMJbGlua3N0
ZWNoMRQwEgYDVQQLFAtsaW5rc193dWhhbjEVMBMGA1UEAxMMbGlua3N0ZWNoIENB
MRAwDgYDVQQpEwdjaGVuaGFvMScwJQYJKoZIhvcNAQkBFhhjaGVuaGFvQGxpbmtz
dGVjaC5jb20uY24wHhcNMTcwOTIyMDIzNDIxWhcNMjcwOTIwMDIzNDIxWjCBpDEL
MAkGA1UEBhMCY24xDjAMBgNVBAgTBWh1YmVpMQ4wDAYDVQQHEwV3dWhhbjESMBAG
A1UEChMJbGlua3N0ZWNoMRQwEgYDVQQLFAtsaW5rc193dWhhbjEQMA4GA1UEAxMH
Y2hlbmhhbzEQMA4GA1UEKRMHY2hlbmhhbzEnMCUGCSqGSIb3DQEJARYYY2hlbmhh
b0BsaW5rc3RlY2guY29tLmNuMIIBIjANBgkqhkiG9w0BAQEFAAOCAQ8AMIIBCgKC
AQEA4ErzVa1dqwE/KLP34wMbtnYw8ta6egOvGLC87+f7jeA0CQ30djGHtSzABuZv
B0FkE29RPLM2nfcxZQo4xdLKd9zWPyU+NpMNC5rsEWSl5f4160r38tB3hofnpGOy
xj1rMnjDK4OT3SZidGUWi3+ZLpxX09Bcxt+PsaVfTuFzZuNV8DEOplnxDjXpGohq
4ncPXv0PZY1v+oPWm+yi9RsUFxUUx3+cSBXrhCQOG+wQ6iSYUJdGX09LCVVAG+yL
srERTGEPRT16GfkO16fbC7q5F24IPASV6M7w8zSuUsZHzM3J3roVuR+f7BclXONT
zRMfScorYHsfPP/xuZJj+90oXwIDAQABo4IBYDCCAVwwCQYDVR0TBAIwADAtBglg
hkgBhvhCAQ0EIBYeRWFzeS1SU0EgR2VuZXJhdGVkIENlcnRpZmljYXRlMB0GA1Ud
DgQWBBRte9NUk1VSMdjXTI+NR/8VBmM1LjCB3gYDVR0jBIHWMIHTgBRqDvrZU8m/
9QVbWQ4b3s6TkaPZQaGBr6SBrDCBqTELMAkGA1UEBhMCY24xDjAMBgNVBAgTBWh1
YmVpMQ4wDAYDVQQHEwV3dWhhbjESMBAGA1UEChMJbGlua3N0ZWNoMRQwEgYDVQQL
FAtsaW5rc193dWhhbjEVMBMGA1UEAxMMbGlua3N0ZWNoIENBMRAwDgYDVQQpEwdj
aGVuaGFvMScwJQYJKoZIhvcNAQkBFhhjaGVuaGFvQGxpbmtzdGVjaC5jb20uY26C
CQCwjA4nIOJ01jATBgNVHSUEDDAKBggrBgEFBQcDAjALBgNVHQ8EBAMCB4AwDQYJ
KoZIhvcNAQELBQADggEBABNlGcaXA47SIPQyqnxgmhJmeUm4lmOhtEEUvU/sgjT+
3C+1YekR3AYwpWE/CxgfTZDtBnH7E2E6wMkgp3bBa/3v2OP7xe8AiCFOjtkBnMCG
LSew3XzZKJHfwCxe2a7xQ8NX26uOnclpeSMnXoKXWuaSjVTXytiU/99qAEEbmql7
fAJ8yLt1NV6oN42qHfeAT9TWk0uUd5xe2H0Obp3W2cptK4P4xnrqslzqwjqgmpK2
LQus8GRC9E7MYKJ1G9W+rNNSjiIBd2DT0l7sHAFdtT40SAe/feTV3LWd95t4aOS1
luWaWw2XwEJd2e9+5vIUoprDdTKpH11E+FlEoTg95Uk=
-----END CERTIFICATE-----
