Certificate:
    Data:
        Version: 3 (0x2)
        Serial Number: 2 (0x2)
    Signature Algorithm: sha256WithRSAEncryption
        Issuer: C=cn, ST=hubei, L=wuhan, O=links, OU=links-wuhan, CN=links CA/name=server/emailAddress=iverson367@qq.com
        Validity
            Not Before: Sep 27 03:04:43 2017 GMT
            Not After : Sep 25 03:04:43 2027 GMT
        Subject: C=cn, ST=hubei, L=wuhan, O=links, OU=links-wuhan, CN=chenhao/name=server/emailAddress=iverson367@qq.com
        Subject Public Key Info:
            Public Key Algorithm: rsaEncryption
                Public-Key: (2048 bit)
                Modulus:
                    00:d6:13:a5:89:f7:3c:b2:d0:38:00:d0:bb:bd:9a:
                    39:3e:ca:20:15:61:c2:5c:d1:ce:ce:83:df:8d:cb:
                    3a:b4:9c:5b:ad:00:17:fe:57:43:5c:f7:dc:f7:c0:
                    12:3b:02:6a:15:03:5d:5d:89:47:a3:87:80:5c:11:
                    80:60:d2:97:9a:b7:aa:7e:fb:c6:12:9f:c2:c8:cc:
                    1c:63:23:29:f9:6c:df:bc:81:d7:95:b7:c6:ae:9b:
                    71:16:76:7c:2d:a1:89:f7:38:42:35:dc:ad:ac:37:
                    96:ee:43:5c:48:a1:3d:a0:06:01:35:82:eb:6a:db:
                    28:0f:21:73:73:a2:d7:17:ac:aa:d6:59:66:2c:33:
                    fc:e5:4a:f9:6f:40:b8:82:85:c3:f1:72:0f:50:83:
                    fb:32:ed:ca:8b:6d:8a:15:14:dd:a6:03:b6:db:e5:
                    1d:b1:10:c0:ea:2a:65:bc:84:91:6a:50:89:fb:8d:
                    e2:ba:29:3a:46:04:e9:5c:89:86:4d:d0:aa:c6:b5:
                    6e:55:3a:c0:0d:4b:72:4d:dc:d8:73:b8:e4:18:38:
                    ba:36:71:70:3a:fd:ef:14:9a:54:e9:d0:a7:03:ea:
                    08:48:dd:14:e6:fe:ac:bd:c1:c1:9d:13:d9:b4:b2:
                    be:07:a8:43:d6:58:2d:76:81:e0:e4:2d:cc:f1:82:
                    4c:e9
                Exponent: 65537 (0x10001)
        X509v3 extensions:
            X509v3 Basic Constraints: 
                CA:FALSE
            Netscape Comment: 
                Easy-RSA Generated Certificate
            X509v3 Subject Key Identifier: 
                A5:55:F3:25:C8:92:A1:36:9E:76:6F:2E:68:B2:74:D1:38:E1:1C:E7
            X509v3 Authority Key Identifier: 
                keyid:EF:A3:70:F1:E7:CF:AB:3F:74:18:8C:BB:1E:65:66:54:04:08:26:6E
                DirName:/C=cn/ST=hubei/L=wuhan/O=links/OU=links-wuhan/CN=links CA/name=server/emailAddress=iverson367@qq.com
                serial:C1:7A:F1:9B:D6:2E:B4:CD

            X509v3 Extended Key Usage: 
                TLS Web Client Authentication
            X509v3 Key Usage: 
                Digital Signature
            X509v3 Subject Alternative Name: 
                DNS:chenhao
    Signature Algorithm: sha256WithRSAEncryption
         74:32:31:72:51:4e:70:e0:cd:64:9b:a8:4c:a7:5c:f2:68:df:
         02:ec:89:e2:13:3c:53:57:93:04:08:23:f5:8f:1b:11:df:47:
         1b:54:80:41:97:79:1d:12:74:cc:bf:25:e1:53:84:9c:61:4d:
         5f:7e:c7:49:d0:f1:00:0a:bf:6e:ba:72:c2:99:cb:9f:1e:48:
         31:b0:9b:80:06:3d:79:a8:1b:1e:f9:98:15:c5:b6:1d:90:4f:
         93:00:03:fa:23:b6:4b:b9:4a:6a:82:12:67:3b:63:73:3c:0b:
         d3:fe:79:90:78:a7:5e:47:2e:eb:1e:c7:a7:f9:a6:ba:58:a8:
         03:4a:76:e8:5b:50:a5:64:1c:ce:c4:db:ca:55:28:d4:51:d7:
         0e:3d:fb:66:19:d8:42:67:b6:55:12:88:05:ea:9c:3e:49:cf:
         8d:b3:19:6f:53:62:cf:17:a4:25:07:8f:25:0b:b6:d3:ac:11:
         5e:66:be:cd:29:97:4b:18:32:9e:16:a0:a9:1b:32:f4:ed:26:
         0f:70:13:83:e0:cb:c5:b2:a1:ec:4e:8e:fa:c2:4c:2f:1e:6b:
         8b:a5:a2:cc:bf:a5:af:ca:1a:b3:7b:f6:a3:50:c3:e7:3b:d7:
         e2:78:92:fc:35:8a:ea:27:3d:50:25:be:30:e4:b8:a4:af:ba:
         85:4f:3d:2e
-----BEGIN CERTIFICATE-----
MIIFFDCCA/ygAwIBAgIBAjANBgkqhkiG9w0BAQsFADCBmTELMAkGA1UEBhMCY24x
DjAMBgNVBAgTBWh1YmVpMQ4wDAYDVQQHEwV3dWhhbjEOMAwGA1UEChMFbGlua3Mx
FDASBgNVBAsTC2xpbmtzLXd1aGFuMREwDwYDVQQDEwhsaW5rcyBDQTEPMA0GA1UE
KRMGc2VydmVyMSAwHgYJKoZIhvcNAQkBFhFpdmVyc29uMzY3QHFxLmNvbTAeFw0x
NzA5MjcwMzA0NDNaFw0yNzA5MjUwMzA0NDNaMIGYMQswCQYDVQQGEwJjbjEOMAwG
A1UECBMFaHViZWkxDjAMBgNVBAcTBXd1aGFuMQ4wDAYDVQQKEwVsaW5rczEUMBIG
A1UECxMLbGlua3Mtd3VoYW4xEDAOBgNVBAMTB2NoZW5oYW8xDzANBgNVBCkTBnNl
cnZlcjEgMB4GCSqGSIb3DQEJARYRaXZlcnNvbjM2N0BxcS5jb20wggEiMA0GCSqG
SIb3DQEBAQUAA4IBDwAwggEKAoIBAQDWE6WJ9zyy0DgA0Lu9mjk+yiAVYcJc0c7O
g9+Nyzq0nFutABf+V0Nc99z3wBI7AmoVA11diUejh4BcEYBg0peat6p++8YSn8LI
zBxjIyn5bN+8gdeVt8aum3EWdnwtoYn3OEI13K2sN5buQ1xIoT2gBgE1gutq2ygP
IXNzotcXrKrWWWYsM/zlSvlvQLiChcPxcg9Qg/sy7cqLbYoVFN2mA7bb5R2xEMDq
KmW8hJFqUIn7jeK6KTpGBOlciYZN0KrGtW5VOsANS3JN3NhzuOQYOLo2cXA6/e8U
mlTp0KcD6ghI3RTm/qy9wcGdE9m0sr4HqEPWWC12geDkLczxgkzpAgMBAAGjggFk
MIIBYDAJBgNVHRMEAjAAMC0GCWCGSAGG+EIBDQQgFh5FYXN5LVJTQSBHZW5lcmF0
ZWQgQ2VydGlmaWNhdGUwHQYDVR0OBBYEFKVV8yXIkqE2nnZvLmiydNE44RznMIHO
BgNVHSMEgcYwgcOAFO+jcPHnz6s/dBiMux5lZlQECCZuoYGfpIGcMIGZMQswCQYD
VQQGEwJjbjEOMAwGA1UECBMFaHViZWkxDjAMBgNVBAcTBXd1aGFuMQ4wDAYDVQQK
EwVsaW5rczEUMBIGA1UECxMLbGlua3Mtd3VoYW4xETAPBgNVBAMTCGxpbmtzIENB
MQ8wDQYDVQQpEwZzZXJ2ZXIxIDAeBgkqhkiG9w0BCQEWEWl2ZXJzb24zNjdAcXEu
Y29tggkAwXrxm9YutM0wEwYDVR0lBAwwCgYIKwYBBQUHAwIwCwYDVR0PBAQDAgeA
MBIGA1UdEQQLMAmCB2NoZW5oYW8wDQYJKoZIhvcNAQELBQADggEBAHQyMXJRTnDg
zWSbqEynXPJo3wLsieITPFNXkwQII/WPGxHfRxtUgEGXeR0SdMy/JeFThJxhTV9+
x0nQ8QAKv266csKZy58eSDGwm4AGPXmoGx75mBXFth2QT5MAA/ojtku5SmqCEmc7
Y3M8C9P+eZB4p15HLusex6f5prpYqANKduhbUKVkHM7E28pVKNRR1w49+2YZ2EJn
tlUSiAXqnD5Jz42zGW9TYs8XpCUHjyULttOsEV5mvs0pl0sYMp4WoKkbMvTtJg9w
E4Pgy8WyoexOjvrCTC8ea4ulosy/pa/KGrN79qNQw+c71+J4kvw1iuonPVAlvjDk
uKSvuoVPPS4=
-----END CERTIFICATE-----
