Certificate:
    Data:
        Version: 3 (0x2)
        Serial Number: 2 (0x2)
    Signature Algorithm: sha256WithRSAEncryption
        Issuer: C=cn, ST=hubei, L=wuhan, O=links, OU=links-wuhan, CN=links CA/name=server/emailAddress=iverson367@qq.com
        Validity
            Not Before: Sep 27 02:48:03 2017 GMT
            Not After : Sep 25 02:48:03 2027 GMT
        Subject: C=cn, ST=hubei, L=wuhan, O=links, OU=links-wuhan, CN=chenhao/name=server/emailAddress=iverson367@qq.com
        Subject Public Key Info:
            Public Key Algorithm: rsaEncryption
                Public-Key: (2048 bit)
                Modulus:
                    00:f1:df:17:64:7c:c8:53:78:76:b4:c0:4f:5f:f1:
                    95:78:6f:73:be:9f:c2:f6:df:7b:b6:98:1a:c5:86:
                    d6:dc:c2:76:77:8f:d5:22:5b:4c:22:bd:40:97:d7:
                    ce:82:8e:bc:7f:09:4d:46:9d:66:20:16:02:ea:16:
                    75:d7:35:8f:22:34:3e:7a:6d:60:f6:4f:91:e9:77:
                    d6:cc:58:b7:96:16:8f:6a:7e:11:3a:75:21:48:08:
                    39:a9:a2:5b:1c:ef:f9:38:45:f3:39:c4:b2:3e:74:
                    92:87:25:ac:09:27:cf:01:9a:72:39:ba:87:c3:0c:
                    5f:09:11:0b:2b:52:c5:a2:e3:bf:01:fd:dd:90:b7:
                    3c:e2:4d:3b:50:dc:ff:51:e7:36:2e:11:05:08:75:
                    96:e2:c9:6a:7c:a2:a6:60:7f:56:e5:ca:2e:af:a0:
                    ba:d2:5b:a3:bd:16:c7:2c:89:8a:f7:10:08:43:f3:
                    71:a9:51:09:c7:3a:65:08:14:1e:b4:4b:65:ff:ea:
                    95:a5:c2:87:c4:94:67:b7:d2:4f:b3:ea:86:30:42:
                    3a:cb:d4:84:18:ab:6f:6e:95:76:da:e1:ea:74:7b:
                    6e:0e:c6:28:67:fb:82:eb:c5:a5:25:58:15:81:e6:
                    8e:b3:27:8d:96:80:b5:96:5a:0e:c0:1f:12:09:75:
                    da:6b
                Exponent: 65537 (0x10001)
        X509v3 extensions:
            X509v3 Basic Constraints: 
                CA:FALSE
            Netscape Comment: 
                Easy-RSA Generated Certificate
            X509v3 Subject Key Identifier: 
                7D:74:79:BD:4C:D9:84:85:DB:97:9F:B4:A1:CD:68:14:99:50:15:80
            X509v3 Authority Key Identifier: 
                keyid:78:46:17:03:CF:51:62:A5:E7:D9:AE:AD:E3:73:C5:87:20:C5:9C:0C
                DirName:/C=cn/ST=hubei/L=wuhan/O=links/OU=links-wuhan/CN=links CA/name=server/emailAddress=iverson367@qq.com
                serial:86:B9:55:58:4B:BB:98:20

            X509v3 Extended Key Usage: 
                TLS Web Client Authentication
            X509v3 Key Usage: 
                Digital Signature
            X509v3 Subject Alternative Name: 
                DNS:chenhao
    Signature Algorithm: sha256WithRSAEncryption
         90:68:49:ae:a5:ba:49:57:da:84:0e:58:c7:ab:20:ef:6e:96:
         6b:97:a8:cf:87:06:4f:ca:94:b0:8e:07:77:e5:56:7a:4c:1a:
         fc:c8:b0:7f:52:88:7e:e1:f2:30:c1:ac:4d:af:0e:3c:b9:34:
         83:11:33:8e:64:9e:18:e8:fd:8d:ab:de:be:d7:b7:d6:d4:9a:
         68:38:05:7f:11:5f:7f:2b:8e:00:01:36:36:54:5b:3e:98:90:
         bb:2c:73:33:bf:20:99:34:e5:6e:91:02:06:78:a9:00:5f:d2:
         53:bb:e5:1e:80:25:19:91:8c:7e:4c:2b:07:d0:a7:c6:0c:8e:
         7b:90:31:4e:12:c2:87:20:6e:7b:7c:f8:5b:3d:ec:f9:83:26:
         66:70:ad:96:7a:0f:e6:21:57:db:90:a3:8b:eb:ca:02:d4:7a:
         a2:7a:cd:fc:7e:b1:c8:5c:0a:05:8c:e9:71:78:37:2c:cc:75:
         6e:01:e8:03:c0:98:64:c6:3c:6a:88:66:02:db:53:a8:f9:da:
         3d:cd:d4:0d:d9:19:21:8e:5e:98:24:05:4f:8d:0f:ba:08:2c:
         12:16:99:ee:42:f5:b8:7b:c2:a3:3b:af:57:ba:88:b9:24:10:
         96:2c:2f:08:71:74:20:a2:2b:40:9d:18:c9:aa:d5:5c:59:e0:
         37:53:ff:32
-----BEGIN CERTIFICATE-----
MIIFFDCCA/ygAwIBAgIBAjANBgkqhkiG9w0BAQsFADCBmTELMAkGA1UEBhMCY24x
DjAMBgNVBAgTBWh1YmVpMQ4wDAYDVQQHEwV3dWhhbjEOMAwGA1UEChMFbGlua3Mx
FDASBgNVBAsTC2xpbmtzLXd1aGFuMREwDwYDVQQDEwhsaW5rcyBDQTEPMA0GA1UE
KRMGc2VydmVyMSAwHgYJKoZIhvcNAQkBFhFpdmVyc29uMzY3QHFxLmNvbTAeFw0x
NzA5MjcwMjQ4MDNaFw0yNzA5MjUwMjQ4MDNaMIGYMQswCQYDVQQGEwJjbjEOMAwG
A1UECBMFaHViZWkxDjAMBgNVBAcTBXd1aGFuMQ4wDAYDVQQKEwVsaW5rczEUMBIG
A1UECxMLbGlua3Mtd3VoYW4xEDAOBgNVBAMTB2NoZW5oYW8xDzANBgNVBCkTBnNl
cnZlcjEgMB4GCSqGSIb3DQEJARYRaXZlcnNvbjM2N0BxcS5jb20wggEiMA0GCSqG
SIb3DQEBAQUAA4IBDwAwggEKAoIBAQDx3xdkfMhTeHa0wE9f8ZV4b3O+n8L233u2
mBrFhtbcwnZ3j9UiW0wivUCX186Cjrx/CU1GnWYgFgLqFnXXNY8iND56bWD2T5Hp
d9bMWLeWFo9qfhE6dSFICDmpolsc7/k4RfM5xLI+dJKHJawJJ88BmnI5uofDDF8J
EQsrUsWi478B/d2QtzziTTtQ3P9R5zYuEQUIdZbiyWp8oqZgf1blyi6voLrSW6O9
FscsiYr3EAhD83GpUQnHOmUIFB60S2X/6pWlwofElGe30k+z6oYwQjrL1IQYq29u
lXba4ep0e24Oxihn+4LrxaUlWBWB5o6zJ42WgLWWWg7AHxIJddprAgMBAAGjggFk
MIIBYDAJBgNVHRMEAjAAMC0GCWCGSAGG+EIBDQQgFh5FYXN5LVJTQSBHZW5lcmF0
ZWQgQ2VydGlmaWNhdGUwHQYDVR0OBBYEFH10eb1M2YSF25eftKHNaBSZUBWAMIHO
BgNVHSMEgcYwgcOAFHhGFwPPUWKl59mureNzxYcgxZwMoYGfpIGcMIGZMQswCQYD
VQQGEwJjbjEOMAwGA1UECBMFaHViZWkxDjAMBgNVBAcTBXd1aGFuMQ4wDAYDVQQK
EwVsaW5rczEUMBIGA1UECxMLbGlua3Mtd3VoYW4xETAPBgNVBAMTCGxpbmtzIENB
MQ8wDQYDVQQpEwZzZXJ2ZXIxIDAeBgkqhkiG9w0BCQEWEWl2ZXJzb24zNjdAcXEu
Y29tggkAhrlVWEu7mCAwEwYDVR0lBAwwCgYIKwYBBQUHAwIwCwYDVR0PBAQDAgeA
MBIGA1UdEQQLMAmCB2NoZW5oYW8wDQYJKoZIhvcNAQELBQADggEBAJBoSa6luklX
2oQOWMerIO9ulmuXqM+HBk/KlLCOB3flVnpMGvzIsH9SiH7h8jDBrE2vDjy5NIMR
M45knhjo/Y2r3r7Xt9bUmmg4BX8RX38rjgABNjZUWz6YkLssczO/IJk05W6RAgZ4
qQBf0lO75R6AJRmRjH5MKwfQp8YMjnuQMU4Swocgbnt8+Fs97PmDJmZwrZZ6D+Yh
V9uQo4vrygLUeqJ6zfx+schcCgWM6XF4NyzMdW4B6APAmGTGPGqIZgLbU6j52j3N
1A3ZGSGOXpgkBU+ND7oILBIWme5C9bh7wqM7r1e6iLkkEJYsLwhxdCCiK0CdGMmq
1VxZ4DdT/zI=
-----END CERTIFICATE-----
